ccopy_reg
_reconstructor
p1
(cnupic.frameworks.opf.clamodel
CLAModel
p2
c__builtin__
object
p3
NtRp4
(dp5
S'_CLAModel__numRunCalls'
p6
I0
sS'_predictedFieldIdx'
p7
NsS'_minLikelihoodThreshold'
p8
F0.0001
sS'_CLAModel__finishedLearning'
p9
I00
sS'_Model__inferenceType'
p10
S'TemporalMultiStep'
p11
sS'_Model__inferenceArgs'
p12
(dp13
S'predictedField'
p14
S'kw_energy_consumption'
p15
ssS'_netInfo'
p16
g1
(cnupic.frameworks.opf.clamodel
NetworkInfo
p17
g3
NtRp18
(dp19
S'net'
p20
NsS'statsCollectors'
p21
(lp22
sbsS'_hasCL'
p23
I01
sS'_hasSP'
p24
I01
sS'_classifierInputEncoder'
p25
NsS'_CLAModel__tpLearningEnabled'
p26
I01
sS'_Model__learningEnabled'
p27
I01
sS'_Model__inferenceEnabled'
p28
I01
sS'_anomalyInst'
p29
g1
(cnupic.algorithms.anomaly
Anomaly
p30
g3
NtRp31
(dp32
S'_movingAverage'
p33
NsS'_likelihood'
p34
NsS'_mode'
p35
S'pure'
p36
sS'_binaryThreshold'
p37
NsbsS'_CLAModel__trainSPNetOnlyIfRequested'
p38
I00
sS'_numPredictions'
p39
I0
sS'_maxPredictionsPerStep'
p40
I8
sS'_input'
p41
NsS'_CLAModel__spLearningEnabled'
p42
I01
sS'_predictedFieldName'
p43
NsS'_hasTP'
p44
I01
sS'_numFields'
p45
NsS'_CLAModel__restoringFromV1'
p46
I00
sb.